; Function Attrs: mustprogress nounwind uwtable
define dso_local void @_ZN4pbrt10IntegratorD2Ev(ptr nocapture noundef nonnull align 8 dereferenceable(64) %this) unnamed_addr #3 align 2 personality ptr @__gxx_personality_v0 {
entry:
  store ptr getelementptr inbounds ({ [6 x ptr] }, ptr @_ZTVN4pbrt10IntegratorE, i64 0, i32 0, i64 2), ptr %this, align 8
  %infiniteLights = getelementptr inbounds i8, ptr %this, i64 40
  %0 = load ptr, ptr %infiniteLights, align 8
  %tobool.not.i.i.i = icmp eq ptr %0, null
  br i1 %tobool.not.i.i.i, label %_ZNSt6vectorIN4pbrt5LightESaIS1_EED2Ev.exit, label %if.then.i.i.i

if.then.i.i.i:                                    ; preds = %entry
  tail call void @_ZdlPv(ptr noundef nonnull %0) #34
  br label %_ZNSt6vectorIN4pbrt5LightESaIS1_EED2Ev.exit

_ZNSt6vectorIN4pbrt5LightESaIS1_EED2Ev.exit:      ; preds = %entry, %if.then.i.i.i
  %lights = getelementptr inbounds i8, ptr %this, i64 16
  %1 = load ptr, ptr %lights, align 8
  %tobool.not.i.i.i1 = icmp eq ptr %1, null
  br i1 %tobool.not.i.i.i1, label %_ZNSt6vectorIN4pbrt5LightESaIS1_EED2Ev.exit3, label %if.then.i.i.i2

if.then.i.i.i2:                                   ; preds = %_ZNSt6vectorIN4pbrt5LightESaIS1_EED2Ev.exit
  tail call void @_ZdlPv(ptr noundef nonnull %1) #34
  br label %_ZNSt6vectorIN4pbrt5LightESaIS1_EED2Ev.exit3

_ZNSt6vectorIN4pbrt5LightESaIS1_EED2Ev.exit3:     ; preds = %_ZNSt6vectorIN4pbrt5LightESaIS1_EED2Ev.exit, %if.then.i.i.i2
  ret void
}